	.file	"monedas_impares.c"
	.text
.Ltext0:
	.section	.rodata.str1.1,"aMS",@progbits,1
.LC0:
	.string	"Monedero: ["
.LC1:
	.string	"%d"
.LC2:
	.string	", "
	.text
	.p2align 4,,15
	.globl	imprimeMonedero
	.type	imprimeMonedero, @function
imprimeMonedero:
.LFB32:
	.file 1 "src/monedas_impares.c"
	.loc 1 34 0
	.cfi_startproc
.LVL0:
	pushq	%r13
	.cfi_def_cfa_offset 16
	.cfi_offset 13, -16
	.loc 1 36 0
	xorl	%eax, %eax
	.loc 1 34 0
	pushq	%r12
	.cfi_def_cfa_offset 24
	.cfi_offset 12, -24
	movl	%esi, %r12d
	leal	-1(%r12), %r13d
	pushq	%rbp
	.cfi_def_cfa_offset 32
	.cfi_offset 6, -32
	movq	%rdi, %rbp
	.loc 1 36 0
	movl	$.LC0, %edi
.LVL1:
	.loc 1 34 0
	pushq	%rbx
	.cfi_def_cfa_offset 40
	.cfi_offset 3, -40
	.loc 1 35 0
	xorl	%ebx, %ebx
	.loc 1 34 0
	subq	$8, %rsp
	.cfi_def_cfa_offset 48
	.loc 1 36 0
	call	printf
.LVL2:
	.loc 1 37 0
	testl	%r12d, %r12d
	jle	.L5
.LVL3:
	.p2align 4,,10
	.p2align 3
.L6:
	.loc 1 38 0
	movl	0(%rbp), %esi
	xorl	%eax, %eax
	movl	$.LC1, %edi
	call	printf
.LVL4:
	.loc 1 39 0
	cmpl	%r13d, %ebx
	jge	.L3
	.loc 1 40 0
	movl	$.LC2, %edi
	xorl	%eax, %eax
	call	printf
.LVL5:
.L4:
	.loc 1 37 0
	addl	$1, %ebx
.LVL6:
	addq	$4, %rbp
	cmpl	%r12d, %ebx
	jne	.L6
.LVL7:
.L5:
	.loc 1 45 0
	addq	$8, %rsp
	.cfi_remember_state
	.cfi_def_cfa_offset 40
	.loc 1 44 0
	movl	$10, %edi
	.loc 1 45 0
	popq	%rbx
	.cfi_def_cfa_offset 32
	popq	%rbp
	.cfi_def_cfa_offset 24
	popq	%r12
	.cfi_def_cfa_offset 16
.LVL8:
	popq	%r13
	.cfi_def_cfa_offset 8
.LVL9:
	.loc 1 44 0
	jmp	putchar
.LVL10:
.L3:
	.cfi_restore_state
	.loc 1 42 0
	movl	$93, %edi
	call	putchar
.LVL11:
	jmp	.L4
	.cfi_endproc
.LFE32:
	.size	imprimeMonedero, .-imprimeMonedero
	.section	.rodata.str1.1
.LC3:
	.string	"\nA Devolver --> "
.LC4:
	.string	"\n________________"
.LC5:
	.string	"%2d "
.LC6:
	.string	"_"
.LC7:
	.string	"___"
.LC8:
	.string	"Mon. tipo %d -> "
	.text
	.p2align 4,,15
	.globl	imprimeTabla
	.type	imprimeTabla, @function
imprimeTabla:
.LFB33:
	.loc 1 56 0
	.cfi_startproc
.LVL12:
	pushq	%r15
	.cfi_def_cfa_offset 16
	.cfi_offset 15, -16
	.loc 1 58 0
	xorl	%eax, %eax
	.loc 1 56 0
	pushq	%r14
	.cfi_def_cfa_offset 24
	.cfi_offset 14, -24
	pushq	%r13
	.cfi_def_cfa_offset 32
	.cfi_offset 13, -32
	pushq	%r12
	.cfi_def_cfa_offset 40
	.cfi_offset 12, -40
	movq	%rsi, %r12
	pushq	%rbp
	.cfi_def_cfa_offset 48
	.cfi_offset 6, -48
	movq	%rdi, %rbp
	.loc 1 58 0
	movl	$.LC3, %edi
.LVL13:
	.loc 1 56 0
	pushq	%rbx
	.cfi_def_cfa_offset 56
	.cfi_offset 3, -56
	movl	%ecx, %ebx
	subq	$24, %rsp
	.cfi_def_cfa_offset 80
	.loc 1 56 0
	movl	%edx, 12(%rsp)
	.loc 1 58 0
	call	printf
.LVL14:
	.loc 1 59 0
	testl	%ebx, %ebx
	js	.L31
	movl	0(%rbp), %eax
	xorl	%r13d, %r13d
	jmp	.L17
.LVL15:
	.p2align 4,,10
	.p2align 3
.L33:
	.loc 1 61 0
	xorl	%eax, %eax
	movl	%ebx, %esi
	movl	$.LC5, %edi
	call	printf
.LVL16:
	.loc 1 59 0
	movl	0(%rbp), %eax
	addl	%eax, %r13d
.LVL17:
	cmpl	%r13d, %ebx
	jl	.L32
.LVL18:
.L17:
	.loc 1 60 0
	movl	%ebx, %edx
	subl	%r13d, %edx
	cmpl	%edx, %eax
	jg	.L33
	.loc 1 63 0
	movl	%r13d, %esi
	xorl	%eax, %eax
	movl	$.LC5, %edi
	call	printf
.LVL19:
	.loc 1 59 0
	movl	0(%rbp), %eax
	addl	%eax, %r13d
.LVL20:
	cmpl	%r13d, %ebx
	jge	.L17
.L32:
	.loc 1 65 0
	xorl	%eax, %eax
	movl	$.LC4, %edi
	call	printf
.LVL21:
	.loc 1 66 0
	testl	%ebx, %ebx
	jle	.L13
	xorl	%r13d, %r13d
.LVL22:
	.p2align 4,,10
	.p2align 3
.L20:
	.loc 1 67 0 discriminator 2
	xorl	%eax, %eax
	movl	$.LC7, %edi
	call	printf
.LVL23:
	.loc 1 66 0 discriminator 2
	addl	0(%rbp), %r13d
.LVL24:
	cmpl	%r13d, %ebx
	jg	.L20
.LVL25:
.L13:
	.loc 1 69 0
	movl	$.LC6, %edi
	.loc 1 70 0
	xorl	%r14d, %r14d
	movslq	%ebx, %r13
	.loc 1 69 0
	call	puts
.LVL26:
	.loc 1 70 0
	movl	12(%rsp), %eax
	testl	%eax, %eax
	jle	.L9
.LVL27:
	.p2align 4,,10
	.p2align 3
.L28:
	.loc 1 71 0
	addl	$1, %r14d
.LVL28:
	xorl	%eax, %eax
	movl	$.LC8, %edi
	movl	%r14d, %esi
	call	printf
.LVL29:
	.loc 1 72 0
	testl	%ebx, %ebx
	js	.L25
	movl	0(%rbp), %eax
	xorl	%r15d, %r15d
	jmp	.L26
.LVL30:
	.p2align 4,,10
	.p2align 3
.L34:
	.loc 1 74 0
	movl	(%r12,%r13,4), %esi
	xorl	%eax, %eax
	movl	$.LC5, %edi
	call	printf
.LVL31:
	.loc 1 72 0
	movl	0(%rbp), %eax
	addl	%eax, %r15d
.LVL32:
	cmpl	%r15d, %ebx
	jl	.L25
.LVL33:
.L26:
	.loc 1 73 0
	movl	%ebx, %ecx
	subl	%r15d, %ecx
	cmpl	%eax, %ecx
	jl	.L34
	.loc 1 76 0
	movslq	%r15d, %rax
	movl	$.LC5, %edi
	movl	(%r12,%rax,4), %esi
	xorl	%eax, %eax
	call	printf
.LVL34:
	.loc 1 72 0
	movl	0(%rbp), %eax
	addl	%eax, %r15d
.LVL35:
	cmpl	%r15d, %ebx
	jge	.L26
.LVL36:
.L25:
	.loc 1 78 0
	movl	$10, %edi
	addq	$39996, %r12
	call	putchar
.LVL37:
	.loc 1 70 0
	cmpl	12(%rsp), %r14d
	jne	.L28
.LVL38:
.L9:
	.loc 1 80 0
	addq	$24, %rsp
	.cfi_remember_state
	.cfi_def_cfa_offset 56
	popq	%rbx
	.cfi_def_cfa_offset 48
.LVL39:
	popq	%rbp
	.cfi_def_cfa_offset 40
.LVL40:
	popq	%r12
	.cfi_def_cfa_offset 32
	popq	%r13
	.cfi_def_cfa_offset 24
.LVL41:
	popq	%r14
	.cfi_def_cfa_offset 16
	popq	%r15
	.cfi_def_cfa_offset 8
	ret
.LVL42:
.L31:
	.cfi_restore_state
	.loc 1 65 0
	movl	$.LC4, %edi
	xorl	%eax, %eax
	call	printf
.LVL43:
	jmp	.L13
	.cfi_endproc
.LFE33:
	.size	imprimeTabla, .-imprimeTabla
	.section	.rodata.str1.8,"aMS",@progbits,1
	.align 8
.LC9:
	.string	" La cantidad de parametros es incorrecta "
	.align 8
.LC10:
	.string	" La cantidad valores de las monedas es diferente al numero de monedas "
	.align 8
.LC11:
	.string	" No hay una soluci\303\263n optima posible "
	.align 8
.LC12:
	.string	" Uso: %s [Cantidad Monedas] [Valor Monedas separadas por ,] [Euros a devolver]\n\n"
	.section	.rodata.str1.1
.LC13:
	.string	" Ejemplo: %s 3 1,2,5 13\n"
	.text
	.p2align 4,,15
	.globl	funError
	.type	funError, @function
funError:
.LFB34:
	.loc 1 85 0
	.cfi_startproc
.LVL44:
	.loc 1 86 0
	cmpl	$2, %edi
	.loc 1 85 0
	pushq	%rbx
	.cfi_def_cfa_offset 16
	.cfi_offset 3, -16
	.loc 1 85 0
	movl	%edi, %ebx
	.loc 1 86 0
	je	.L37
	cmpl	$3, %edi
	je	.L38
	cmpl	$1, %edi
	je	.L41
.LVL45:
.L36:
	.loc 1 98 0
	movq	nomPrograma(%rip), %rsi
	movl	$.LC12, %edi
	xorl	%eax, %eax
	.loc 1 100 0
	negl	%ebx
.LVL46:
	.loc 1 98 0
	call	printf
.LVL47:
	.loc 1 99 0
	movq	nomPrograma(%rip), %rsi
	movl	$.LC13, %edi
	xorl	%eax, %eax
	call	printf
.LVL48:
	.loc 1 100 0
	movl	%ebx, %edi
	call	exit
.LVL49:
.L41:
	.loc 1 88 0
	movl	$.LC9, %edi
	call	puts
.LVL50:
	.loc 1 89 0
	jmp	.L36
.L38:
	.loc 1 94 0
	movl	$.LC11, %edi
	call	puts
.LVL51:
	.loc 1 95 0
	.p2align 4,,3
	jmp	.L36
.L37:
	.loc 1 91 0
	movl	$.LC10, %edi
	call	puts
.LVL52:
	.loc 1 92 0
	.p2align 4,,3
	jmp	.L36
	.cfi_endproc
.LFE34:
	.size	funError, .-funError
	.p2align 4,,15
	.globl	min
	.type	min, @function
min:
.LFB35:
	.loc 1 108 0
	.cfi_startproc
.LVL53:
	.loc 1 109 0
	cmpl	%edi, %esi
	movl	%edi, %eax
	cmovle	%esi, %eax
	.loc 1 110 0
	ret
	.cfi_endproc
.LFE35:
	.size	min, .-min
	.p2align 4,,15
	.globl	Cambio
	.type	Cambio, @function
Cambio:
.LFB36:
	.loc 1 116 0
	.cfi_startproc
.LVL54:
	.loc 1 124 0
	movslq	%esi, %rax
.LVL55:
	.loc 1 116 0
	pushq	%rbp
	.cfi_def_cfa_offset 16
	.cfi_offset 6, -16
	.loc 1 124 0
	leaq	18(,%rax,4), %rax
.LVL56:
	.loc 1 116 0
	movq	%rsp, %rbp
	.cfi_def_cfa_register 6
	.loc 1 124 0
	andq	$-16, %rax
	subq	%rax, %rsp
	.loc 1 134 0
	xorl	%eax, %eax
	testl	%esi, %esi
	.loc 1 124 0
	movq	%rsp, %rcx
.LVL57:
	.loc 1 134 0
	jle	.L47
.LVL58:
	.p2align 4,,10
	.p2align 3
.L60:
	.loc 1 135 0 discriminator 2
	movl	$0, (%rcx,%rax,4)
.LVL59:
	addq	$1, %rax
.LVL60:
	.loc 1 134 0 discriminator 2
	cmpl	%eax, %esi
	jg	.L60
.L47:
.LVL61:
	.loc 1 144 0
	xorl	%eax, %eax
	.loc 1 143 0
	testl	%edx, %edx
	je	.L45
	.loc 1 145 0
	testl	%esi, %esi
	jg	.L65
.L56:
	.loc 1 146 0
	movl	$999999, %eax
.L45:
.LVL62:
	.loc 1 163 0
	leave
	.cfi_remember_state
	.cfi_def_cfa 7, 8
	ret
.LVL63:
	.p2align 4,,10
	.p2align 3
.L65:
	.cfi_restore_state
	.loc 1 145 0
	movl	%edx, %eax
	shrl	$31, %eax
	testb	%al, %al
	jne	.L56
	movl	%esi, %eax
.LVL64:
	.p2align 4,,10
	.p2align 3
.L49:
	.loc 1 148 0 discriminator 1
	testl	%eax, %eax
	jle	.L57
.L66:
	testl	%edx, %edx
	jle	.L57
	.loc 1 149 0
	movslq	%eax, %r8
	movl	-4(%rdi,%r8,4), %r8d
	cmpl	%r8d, %edx
	jl	.L50
	.loc 1 150 0
	subl	%r8d, %edx
.LVL65:
	.loc 1 151 0
	leal	-1(%rax), %r8d
	movslq	%r8d, %r8
	addl	$1, (%rcx,%r8,4)
	.loc 1 148 0
	testl	%eax, %eax
	jg	.L66
.L57:
	xorl	%edx, %edx
.LVL66:
	xorl	%eax, %eax
.LVL67:
	.p2align 4,,10
	.p2align 3
.L54:
	.loc 1 159 0 discriminator 2
	addl	(%rcx,%rdx,4), %eax
.LVL68:
	addq	$1, %rdx
.LVL69:
	.loc 1 158 0 discriminator 2
	cmpl	%edx, %esi
	jg	.L54
	.loc 1 163 0
	leave
	.cfi_remember_state
	.cfi_def_cfa 7, 8
	ret
.LVL70:
	.p2align 4,,10
	.p2align 3
.L50:
	.cfi_restore_state
	.loc 1 153 0
	subl	$1, %eax
.LVL71:
	jmp	.L49
	.cfi_endproc
.LFE36:
	.size	Cambio, .-Cambio
	.section	.rodata.str1.1
.LC14:
	.string	","
.LC15:
	.string	"Cantidad a devolver: %d \342\202\254\n"
.LC16:
	.string	"\nSolucion: "
.LC17:
	.string	"%2d Monedas de %d \342\202\254\n"
	.section	.text.startup,"ax",@progbits
	.p2align 4,,15
	.globl	main
	.type	main, @function
main:
.LFB37:
	.loc 1 168 0
	.cfi_startproc
.LVL72:
	pushq	%rbp
	.cfi_def_cfa_offset 16
	.cfi_offset 6, -16
.LVL73:
.LBB11:
.LBB12:
	.file 2 "/usr/include/stdlib.h"
	.loc 2 280 0
	movl	$10, %edx
.LBE12:
.LBE11:
	.loc 1 168 0
	movq	%rsp, %rbp
	.cfi_def_cfa_register 6
	pushq	%r15
	pushq	%r14
	.cfi_offset 15, -24
	.cfi_offset 14, -32
	movq	%rsi, %r14
	pushq	%r13
	.cfi_offset 13, -40
	movl	%edi, %r13d
	pushq	%r12
	pushq	%rbx
	subq	$600024, %rsp
	.cfi_offset 12, -48
	.cfi_offset 3, -56
.LBB14:
.LBB13:
	.loc 2 280 0
	movq	8(%rsi), %rdi
.LVL74:
	xorl	%esi, %esi
.LVL75:
	call	strtol
.LVL76:
.LBE13:
.LBE14:
	.loc 1 169 0
	movslq	%eax, %rbx
.LVL77:
	.loc 1 171 0
	movq	16(%r14), %rdi
	.loc 1 169 0
	salq	$2, %rbx
.LVL78:
	leaq	18(%rbx), %rax
.LVL79:
	andq	$-16, %rax
	subq	%rax, %rsp
	.loc 1 170 0
	movq	(%r14), %rax
	.loc 1 169 0
	leaq	3(%rsp), %r12
	shrq	$2, %r12
	.loc 1 177 0
	cmpl	$4, %r13d
	.loc 1 170 0
	movq	%rax, nomPrograma(%rip)
	.loc 1 169 0
	leaq	0(,%r12,4), %r15
.LVL80:
	.loc 1 177 0
	je	.L111
	.loc 1 187 0
	cmpl	$3, %r13d
	jle	.L74
	.loc 1 174 0
	xorl	%r11d, %r11d
.LVL81:
.L72:
	movl	0(,%r12,4), %r10d
	shrq	$2, %rbx
	movl	%r11d, %r9d
	leaq	1(%rbx), %r8
	movq	%rbx, -600040(%rbp)
	.loc 1 212 0 discriminator 1
	movq	$0, -600032(%rbp)
	xorl	%r13d, %r13d
	movl	%r11d, -600016(%rbp)
	movslq	%r10d, %rax
	movl	%r10d, %r14d
.LVL82:
	movq	%rax, -600056(%rbp)
	movl	%r10d, %eax
	negl	%eax
	movl	%eax, -600044(%rbp)
	leaq	-600000(%rbp), %rax
	movq	%rax, -600064(%rbp)
.LVL83:
	.p2align 4,,10
	.p2align 3
.L75:
	cmpq	$0, -600040(%rbp)
	je	.L79
	movq	-600064(%rbp), %r12
	.loc 1 212 0 is_stmt 0
	movl	$1, %ebx
	movl	%r14d, %ecx
	jmp	.L80
.LVL84:
	.p2align 4,,10
	.p2align 3
.L113:
	.loc 1 214 0 is_stmt 1
	movl	$0, (%r12)
.L77:
.LVL85:
	addq	$1, %rbx
	addq	$39996, %r12
	.loc 1 212 0
	cmpq	%r8, %rbx
	je	.L112
.L80:
	.loc 1 213 0
	testl	%r13d, %r13d
	leal	-1(%rbx), %r14d
.LVL86:
	je	.L113
	.loc 1 215 0
	cmpl	%r9d, %ecx
	jg	.L77
	.loc 1 216 0
	movl	%ebx, %esi
	movl	%r13d, %edx
	movq	%r15, %rdi
	movq	%r8, -600024(%rbp)
	movl	%r9d, -600012(%rbp)
	movl	%ecx, -600008(%rbp)
	call	Cambio
.LVL87:
	movl	%eax, -600004(%rbp)
.LVL88:
	.loc 1 217 0
	movslq	%r14d, %rax
.LVL89:
	movl	%r13d, %edx
	subl	(%r15,%rax,4), %edx
	movl	%r14d, %esi
	movq	%r15, %rdi
	call	Cambio
.LVL90:
.LBB15:
.LBB16:
	.loc 1 109 0
	movl	-600004(%rbp), %r10d
.LBE16:
.LBE15:
	.loc 1 217 0
	addl	$1, %eax
.LVL91:
	.loc 1 218 0
	movq	-600024(%rbp), %r8
	movl	-600012(%rbp), %r9d
	movl	-600008(%rbp), %ecx
.LVL92:
.LBB18:
.LBB17:
	.loc 1 109 0
	cmpl	%r10d, %eax
	cmovle	%eax, %r10d
.LBE17:
.LBE18:
	.loc 1 218 0
	movq	-600032(%rbp), %rax
.LVL93:
	addq	$1, %rbx
	movl	%r10d, (%r12,%rax,4)
	addq	$39996, %r12
	.loc 1 212 0
	cmpq	%r8, %rbx
	jne	.L80
.LVL94:
	.p2align 4,,10
	.p2align 3
.L112:
	movl	%ecx, %r14d
.L79:
	.loc 1 223 0
	addl	%r14d, %r13d
.LVL95:
	movq	-600056(%rbp), %rax
	addl	-600044(%rbp), %r9d
	addq	%rax, -600032(%rbp)
	.loc 1 211 0
	cmpl	-600016(%rbp), %r13d
	jle	.L75
	movl	-600016(%rbp), %r11d
.LVL96:
.L73:
	.loc 1 240 0
	movl	%r11d, %esi
	movl	$.LC15, %edi
	xorl	%eax, %eax
	movl	%r11d, -600004(%rbp)
	call	printf
.LVL97:
	.loc 1 246 0
	movq	-600040(%rbp), %r12
	movq	%r15, %rdi
	movl	%r12d, %esi
	call	imprimeMonedero
.LVL98:
	.loc 1 248 0
	movl	-600004(%rbp), %r11d
	movq	-600064(%rbp), %rsi
	movl	%r12d, %edx
	movq	%r15, %rdi
	movl	%r11d, %ecx
	call	imprimeTabla
.LVL99:
	.loc 1 257 0
	leal	-1(%r12), %edx
.LVL100:
	.loc 1 259 0
	salq	$2, %r12
	.loc 1 261 0
	movl	-600004(%rbp), %r11d
	.loc 1 259 0
	leaq	18(%r12), %rax
	.loc 1 261 0
	shrq	$2, %r12
	.loc 1 259 0
	andq	$-16, %rax
	subq	%rax, %rsp
	.loc 1 261 0
	testq	%r12, %r12
	.loc 1 259 0
	movq	%rsp, %r13
.LVL101:
	movq	%rsp, %rax
	leaq	(%rsp,%r12,4), %rcx
	.loc 1 261 0
	je	.L110
.LVL102:
	.p2align 4,,10
	.p2align 3
.L102:
	.loc 1 262 0 discriminator 2
	movl	$0, (%rax)
	addq	$4, %rax
	.loc 1 261 0 discriminator 2
	cmpq	%rcx, %rax
	jne	.L102
	jmp	.L110
.LVL103:
	.p2align 4,,10
	.p2align 3
.L106:
	.loc 1 265 0 discriminator 1
	leal	-1(%rdx), %edi
	movslq	%edx, %rax
	movslq	%r11d, %rcx
	imulq	$9999, %rax, %r8
	movslq	%edi, %r9
	imulq	$9999, %r9, %r9
	addq	%rcx, %r8
	addq	%r9, %rcx
	movl	-600000(%rbp,%rcx,4), %ecx
	cmpl	%ecx, -600000(%rbp,%r8,4)
	je	.L93
.L85:
	.loc 1 268 0
	addl	$1, 0(%r13,%rax,4)
	.loc 1 269 0
	subl	(%r15,%rax,4), %r11d
.LVL104:
.L110:
	movl	%r11d, %esi
	notl	%esi
	.loc 1 264 0
	movl	%esi, %eax
	shrl	$31, %eax
	testb	%al, %al
	je	.L94
.L114:
	.loc 1 264 0 is_stmt 0 discriminator 1
	testl	%edx, %edx
	js	.L94
	.loc 1 265 0 is_stmt 1
	testl	%edx, %edx
	jne	.L106
	xorl	%eax, %eax
	.p2align 4,,5
	jmp	.L85
	.p2align 4,,10
	.p2align 3
.L93:
	.loc 1 264 0
	movl	%esi, %eax
	.loc 1 266 0
	movl	%edi, %edx
.LVL105:
	.loc 1 264 0
	shrl	$31, %eax
	testb	%al, %al
	jne	.L114
	.p2align 4,,10
	.p2align 3
.L94:
	.loc 1 273 0
	movl	$.LC16, %edi
	.loc 1 274 0
	xorl	%ebx, %ebx
	.loc 1 273 0
	call	puts
.LVL106:
	.loc 1 274 0
	testq	%r12, %r12
	je	.L98
.LVL107:
	.p2align 4,,10
	.p2align 3
.L103:
	.loc 1 275 0 discriminator 2
	movslq	%ebx, %rax
	movl	$.LC17, %edi
	addq	$1, %rbx
.LVL108:
	movl	(%r15,%rax,4), %edx
	movl	0(%r13,%rax,4), %esi
	xorl	%eax, %eax
.LVL109:
	call	printf
.LVL110:
	.loc 1 274 0 discriminator 2
	cmpq	%r12, %rbx
	jne	.L103
.L98:
	.loc 1 279 0
	leaq	-40(%rbp), %rsp
.LVL111:
	xorl	%eax, %eax
	popq	%rbx
	popq	%r12
	popq	%r13
.LVL112:
	popq	%r14
	popq	%r15
.LVL113:
	popq	%rbp
	.cfi_remember_state
	.cfi_def_cfa 7, 8
.LVL114:
	ret
.LVL115:
.L111:
	.cfi_restore_state
	.loc 1 178 0
	movl	$.LC14, %esi
	call	strtok
.LVL116:
	.loc 1 179 0
	testq	%rax, %rax
	je	.L92
	.loc 1 175 0
	xorb	%r13b, %r13b
.LVL117:
	.p2align 4,,10
	.p2align 3
.L70:
.LBB19:
.LBB20:
	.loc 2 280 0
	xorl	%esi, %esi
	movl	$10, %edx
	movq	%rax, %rdi
	call	strtol
.LVL118:
.LBE20:
.LBE19:
	.loc 1 180 0
	movslq	%r13d, %rdx
	.loc 1 182 0
	xorl	%edi, %edi
	movl	$.LC14, %esi
.LBB22:
.LBB21:
	.loc 2 280 0
	movl	%eax, (%r15,%rdx,4)
.LBE21:
.LBE22:
	.loc 1 181 0
	addl	$1, %r13d
.LVL119:
	.loc 1 182 0
	call	strtok
.LVL120:
	.loc 1 179 0
	testq	%rax, %rax
	jne	.L70
.LVL121:
.L69:
	.loc 1 184 0
	movslq	%r13d, %rax
.LVL122:
	movq	%rax, %rdi
	movq	%rax, -600040(%rbp)
	movq	%rbx, %rax
	shrq	$2, %rax
	cmpq	%rax, %rdi
	jne	.L115
.LVL123:
.LBB23:
.LBB24:
	.loc 2 280 0
	movq	24(%r14), %rdi
	xorl	%esi, %esi
	movl	$10, %edx
	call	strtol
.LVL124:
.LBE24:
.LBE23:
	.loc 1 211 0
	testl	%eax, %eax
.LBB26:
.LBB25:
	.loc 2 280 0
	movl	%eax, %r11d
.LVL125:
.LBE25:
.LBE26:
	.loc 1 211 0
	jns	.L72
	leaq	-600000(%rbp), %rax
.LVL126:
	movq	%rax, -600064(%rbp)
	jmp	.L73
.LVL127:
.L92:
	.loc 1 175 0
	xorl	%r13d, %r13d
.LVL128:
	jmp	.L69
.LVL129:
.L74:
	.loc 1 188 0
	movl	$1, %edi
.LVL130:
	call	funError
.LVL131:
.L115:
	.loc 1 185 0
	movl	$2, %edi
	call	funError
.LVL132:
	.cfi_endproc
.LFE37:
	.size	main, .-main
	.comm	nomPrograma,8,8
	.text
.Letext0:
	.file 3 "/usr/lib/gcc/x86_64-redhat-linux/4.8.2/include/stddef.h"
	.file 4 "/usr/include/bits/types.h"
	.file 5 "/usr/include/libio.h"
	.file 6 "/usr/include/stdio.h"
	.file 7 "<interno>"
	.file 8 "/usr/include/string.h"
	.section	.note.GNU-stack,"",@progbits
